; Function Attrs: mustprogress uwtable
define noundef range(i64 -2147483648, 2147483648) i64 @_ZNK19OpenColorIO_v2_5dev12ViewingRules17getNumColorSpacesEm(ptr noundef nonnull readonly align 8 captures(none) dereferenceable(16) %0, i64 noundef %1) local_unnamed_addr #0 align 2 {
  %3 = getelementptr inbounds nuw i8, ptr %0, i64 8
  %4 = load ptr, ptr %3, align 8, !tbaa !6
  tail call void @_ZNK19OpenColorIO_v2_5dev12ViewingRules4Impl16validatePositionEm(ptr noundef nonnull align 8 dereferenceable(24) %4, i64 noundef %1)
  %5 = load ptr, ptr %3, align 8, !tbaa !6
  %6 = load ptr, ptr %5, align 8, !tbaa !11
  %7 = getelementptr inbounds nuw %"class.std::shared_ptr.0", ptr %6, i64 %1
  %8 = load ptr, ptr %7, align 8, !tbaa !36
  %9 = getelementptr inbounds nuw i8, ptr %8, i64 56
  %10 = getelementptr inbounds nuw i8, ptr %8, i64 64
  %11 = load ptr, ptr %10, align 8, !tbaa !54
  %12 = load ptr, ptr %9, align 8, !tbaa !57
  %13 = ptrtoint ptr %11 to i64
  %14 = ptrtoint ptr %12 to i64
  %15 = sub i64 %13, %14
  %sext = shl i64 %15, 27
  %16 = ashr i64 %sext, 32
  ret i64 %16
}